target datalayout = "e-m:e-p270:32:32-p271:32:32-p272:64:64-i64:64-i128:128-f80:128-n8:16:32:64-S128"
target triple = "x86_64-pc-linux-gnu"

%struct.opj_j2k = type { i32, %union.anon, ptr, ptr, %struct.opj_cp, ptr, ptr, ptr, i32, ptr, ptr, i32, i32, i32 }
%union.anon = type { %struct.opj_j2k_dec }
%struct.opj_j2k_dec = type { i32, ptr, ptr, i32, i32, i32, i32, i32, i32, i32, i64, i32, i32, ptr, %struct.opj_j2k_tlm_info, i32, i32, ptr, i8 }
%struct.opj_j2k_tlm_info = type { i32, ptr, i32 }
%struct.opj_cp = type { i16, i32, i32, i32, i32, ptr, i32, i32, i32, ptr, ptr, i32, i32, ptr, ptr, ptr, i32, i32, i32, ptr, %union.anon.0, i32, i8 }
%union.anon.0 = type { %struct.opj_encoding_param }
%struct.opj_encoding_param = type { i32, i32, ptr, i8, i32, i8 }
%struct.opj_codestream_index = type { i64, i64, i64, i32, ptr, i32, i32, ptr }
%struct.opj_tile_index = type { i32, i32, i32, i32, ptr, i32, ptr, i32, i32, ptr }
%struct.opj_tp_index = type { i64, i64, i64 }
%struct.opj_j2k_tlm_tile_part_info = type { i16, i32 }

@.str.175 = private unnamed_addr constant [96 x i8] c"opj_j2k_build_tp_index_from_tlm(): tile %d has no registered tile-part in TLM marker segments.\0A\00", align 1
@.str.176 = private unnamed_addr constant [65 x i8] c"opj_j2k_build_tp_index_from_tlm(): tile index allocation failed\0A\00", align 1

; Function Attrs: nounwind uwtable
define internal void @opj_j2k_build_tp_index_from_tlm(ptr noundef %0, ptr noundef %1) #0 {
  %3 = alloca ptr, align 8
  %4 = alloca ptr, align 8
  %5 = alloca ptr, align 8
  %6 = alloca i32, align 4
  %7 = alloca i64, align 8
  %8 = alloca i32, align 4
  %9 = alloca i32, align 4
  %10 = alloca i32, align 4
  %11 = alloca ptr, align 8
  %12 = alloca i32, align 4
  store ptr %0, ptr %3, align 8, !tbaa !14
  store ptr %1, ptr %4, align 8, !tbaa !48
  call void @llvm.lifetime.start.p0(i64 8, ptr %5) #10
  call void @llvm.lifetime.start.p0(i64 4, ptr %6) #10
  call void @llvm.lifetime.start.p0(i64 8, ptr %7) #10
  %13 = load ptr, ptr %3, align 8, !tbaa !14
  %14 = getelementptr inbounds nuw %struct.opj_j2k, ptr %13, i32 0, i32 1
  %15 = getelementptr inbounds nuw %struct.opj_j2k_dec, ptr %14, i32 0, i32 14
  store ptr %15, ptr %5, align 8, !tbaa !414
  %16 = load ptr, ptr %5, align 8, !tbaa !414
  %17 = getelementptr inbounds nuw %struct.opj_j2k_tlm_info, ptr %16, i32 0, i32 0
  %18 = load i32, ptr %17, align 8, !tbaa !416
  %19 = icmp eq i32 %18, 0
  br i1 %19, label %20, label %23

20:                                               ; preds = %2
  %21 = load ptr, ptr %5, align 8, !tbaa !414
  %22 = getelementptr inbounds nuw %struct.opj_j2k_tlm_info, ptr %21, i32 0, i32 2
  store i32 1, ptr %22, align 8, !tbaa !419
  store i32 1, ptr %8, align 4
  br label %253

23:                                               ; preds = %2
  %24 = load ptr, ptr %5, align 8, !tbaa !414
  %25 = getelementptr inbounds nuw %struct.opj_j2k_tlm_info, ptr %24, i32 0, i32 2
  %26 = load i32, ptr %25, align 8, !tbaa !419
  %27 = icmp ne i32 %26, 0
  br i1 %27, label %28, label %29

28:                                               ; preds = %23
  store i32 1, ptr %8, align 4
  br label %253

29:                                               ; preds = %23
  store i32 0, ptr %6, align 4, !tbaa !3
  br label %30

30:                                               ; preds = %67, %29
  %31 = load i32, ptr %6, align 4, !tbaa !3
  %32 = load ptr, ptr %5, align 8, !tbaa !414
  %33 = getelementptr inbounds nuw %struct.opj_j2k_tlm_info, ptr %32, i32 0, i32 0
  %34 = load i32, ptr %33, align 8, !tbaa !416
  %35 = icmp ult i32 %31, %34
  br i1 %35, label %36, label %70

36:                                               ; preds = %30
  call void @llvm.lifetime.start.p0(i64 4, ptr %9) #10
  %37 = load ptr, ptr %5, align 8, !tbaa !414
  %38 = getelementptr inbounds nuw %struct.opj_j2k_tlm_info, ptr %37, i32 0, i32 1
  %39 = load ptr, ptr %38, align 8, !tbaa !420
  %40 = load i32, ptr %6, align 4, !tbaa !3
  %41 = zext i32 %40 to i64
  %42 = getelementptr inbounds nuw %struct.opj_j2k_tlm_tile_part_info, ptr %39, i64 %41
  %43 = getelementptr inbounds nuw %struct.opj_j2k_tlm_tile_part_info, ptr %42, i32 0, i32 0
  %44 = load i16, ptr %43, align 4, !tbaa !421
  %45 = zext i16 %44 to i32
  store i32 %45, ptr %9, align 4, !tbaa !3
  %46 = load i32, ptr %9, align 4, !tbaa !3
  %47 = load ptr, ptr %3, align 8, !tbaa !14
  %48 = getelementptr inbounds nuw %struct.opj_j2k, ptr %47, i32 0, i32 7
  %49 = load ptr, ptr %48, align 8, !tbaa !41
  %50 = getelementptr inbounds nuw %struct.opj_codestream_index, ptr %49, i32 0, i32 7
  %51 = load ptr, ptr %50, align 8, !tbaa !232
  %52 = load i32, ptr %9, align 4, !tbaa !3
  %53 = zext i32 %52 to i64
  %54 = getelementptr inbounds nuw %struct.opj_tile_index, ptr %51, i64 %53
  %55 = getelementptr inbounds nuw %struct.opj_tile_index, ptr %54, i32 0, i32 0
  store i32 %46, ptr %55, align 8, !tbaa !423
  %56 = load ptr, ptr %3, align 8, !tbaa !14
  %57 = getelementptr inbounds nuw %struct.opj_j2k, ptr %56, i32 0, i32 7
  %58 = load ptr, ptr %57, align 8, !tbaa !41
  %59 = getelementptr inbounds nuw %struct.opj_codestream_index, ptr %58, i32 0, i32 7
  %60 = load ptr, ptr %59, align 8, !tbaa !232
  %61 = load i32, ptr %9, align 4, !tbaa !3
  %62 = zext i32 %61 to i64
  %63 = getelementptr inbounds nuw %struct.opj_tile_index, ptr %60, i64 %62
  %64 = getelementptr inbounds nuw %struct.opj_tile_index, ptr %63, i32 0, i32 2
  %65 = load i32, ptr %64, align 8, !tbaa !424
  %66 = add i32 %65, 1
  store i32 %66, ptr %64, align 8, !tbaa !424
  call void @llvm.lifetime.end.p0(i64 4, ptr %9) #10
  br label %67

67:                                               ; preds = %36
  %68 = load i32, ptr %6, align 4, !tbaa !3
  %69 = add i32 %68, 1
  store i32 %69, ptr %6, align 4, !tbaa !3
  br label %30, !llvm.loop !425

70:                                               ; preds = %30
  store i32 0, ptr %6, align 4, !tbaa !3
  br label %71

71:                                               ; preds = %96, %70
  %72 = load i32, ptr %6, align 4, !tbaa !3
  %73 = load ptr, ptr %3, align 8, !tbaa !14
  %74 = getelementptr inbounds nuw %struct.opj_j2k, ptr %73, i32 0, i32 7
  %75 = load ptr, ptr %74, align 8, !tbaa !41
  %76 = getelementptr inbounds nuw %struct.opj_codestream_index, ptr %75, i32 0, i32 6
  %77 = load i32, ptr %76, align 4, !tbaa !233
  %78 = icmp ult i32 %72, %77
  br i1 %78, label %79, label %99

79:                                               ; preds = %71
  %80 = load ptr, ptr %3, align 8, !tbaa !14
  %81 = getelementptr inbounds nuw %struct.opj_j2k, ptr %80, i32 0, i32 7
  %82 = load ptr, ptr %81, align 8, !tbaa !41
  %83 = getelementptr inbounds nuw %struct.opj_codestream_index, ptr %82, i32 0, i32 7
  %84 = load ptr, ptr %83, align 8, !tbaa !232
  %85 = load i32, ptr %6, align 4, !tbaa !3
  %86 = zext i32 %85 to i64
  %87 = getelementptr inbounds nuw %struct.opj_tile_index, ptr %84, i64 %86
  %88 = getelementptr inbounds nuw %struct.opj_tile_index, ptr %87, i32 0, i32 2
  %89 = load i32, ptr %88, align 8, !tbaa !424
  %90 = icmp eq i32 %89, 0
  br i1 %90, label %91, label %95

91:                                               ; preds = %79
  %92 = load ptr, ptr %4, align 8, !tbaa !48
  %93 = load i32, ptr %6, align 4, !tbaa !3
  %94 = call i32 (ptr, i32, ptr, ...) @opj_event_msg(ptr noundef %92, i32 noundef 1, ptr noundef @.str.175, i32 noundef %93)
  br label %202

95:                                               ; preds = %79
  br label %96

96:                                               ; preds = %95
  %97 = load i32, ptr %6, align 4, !tbaa !3
  %98 = add i32 %97, 1
  store i32 %98, ptr %6, align 4, !tbaa !3
  br label %71, !llvm.loop !426

99:                                               ; preds = %71
  %100 = load ptr, ptr %3, align 8, !tbaa !14
  %101 = getelementptr inbounds nuw %struct.opj_j2k, ptr %100, i32 0, i32 7
  %102 = load ptr, ptr %101, align 8, !tbaa !41
  %103 = getelementptr inbounds nuw %struct.opj_codestream_index, ptr %102, i32 0, i32 1
  %104 = load i64, ptr %103, align 8, !tbaa !319
  store i64 %104, ptr %7, align 8, !tbaa !85
  store i32 0, ptr %6, align 4, !tbaa !3
  br label %105

105:                                              ; preds = %198, %99
  %106 = load i32, ptr %6, align 4, !tbaa !3
  %107 = load ptr, ptr %5, align 8, !tbaa !414
  %108 = getelementptr inbounds nuw %struct.opj_j2k_tlm_info, ptr %107, i32 0, i32 0
  %109 = load i32, ptr %108, align 8, !tbaa !416
  %110 = icmp ult i32 %106, %109
  br i1 %110, label %111, label %201

111:                                              ; preds = %105
  call void @llvm.lifetime.start.p0(i64 4, ptr %10) #10
  %112 = load ptr, ptr %5, align 8, !tbaa !414
  %113 = getelementptr inbounds nuw %struct.opj_j2k_tlm_info, ptr %112, i32 0, i32 1
  %114 = load ptr, ptr %113, align 8, !tbaa !420
  %115 = load i32, ptr %6, align 4, !tbaa !3
  %116 = zext i32 %115 to i64
  %117 = getelementptr inbounds nuw %struct.opj_j2k_tlm_tile_part_info, ptr %114, i64 %116
  %118 = getelementptr inbounds nuw %struct.opj_j2k_tlm_tile_part_info, ptr %117, i32 0, i32 0
  %119 = load i16, ptr %118, align 4, !tbaa !421
  %120 = zext i16 %119 to i32
  store i32 %120, ptr %10, align 4, !tbaa !3
  call void @llvm.lifetime.start.p0(i64 8, ptr %11) #10
  %121 = load ptr, ptr %3, align 8, !tbaa !14
  %122 = getelementptr inbounds nuw %struct.opj_j2k, ptr %121, i32 0, i32 7
  %123 = load ptr, ptr %122, align 8, !tbaa !41
  %124 = getelementptr inbounds nuw %struct.opj_codestream_index, ptr %123, i32 0, i32 7
  %125 = load ptr, ptr %124, align 8, !tbaa !232
  %126 = load i32, ptr %10, align 4, !tbaa !3
  %127 = zext i32 %126 to i64
  %128 = getelementptr inbounds nuw %struct.opj_tile_index, ptr %125, i64 %127
  store ptr %128, ptr %11, align 8, !tbaa !427
  %129 = load ptr, ptr %11, align 8, !tbaa !427
  %130 = getelementptr inbounds nuw %struct.opj_tile_index, ptr %129, i32 0, i32 4
  %131 = load ptr, ptr %130, align 8, !tbaa !238
  %132 = icmp ne ptr %131, null
  br i1 %132, label %149, label %133

133:                                              ; preds = %111
  %134 = load ptr, ptr %11, align 8, !tbaa !427
  %135 = getelementptr inbounds nuw %struct.opj_tile_index, ptr %134, i32 0, i32 2
  %136 = load i32, ptr %135, align 8, !tbaa !424
  %137 = zext i32 %136 to i64
  %138 = call ptr @opj_calloc(i64 noundef %137, i64 noundef 24)
  %139 = load ptr, ptr %11, align 8, !tbaa !427
  %140 = getelementptr inbounds nuw %struct.opj_tile_index, ptr %139, i32 0, i32 4
  store ptr %138, ptr %140, align 8, !tbaa !238
  %141 = load ptr, ptr %11, align 8, !tbaa !427
  %142 = getelementptr inbounds nuw %struct.opj_tile_index, ptr %141, i32 0, i32 4
  %143 = load ptr, ptr %142, align 8, !tbaa !238
  %144 = icmp ne ptr %143, null
  br i1 %144, label %148, label %145

145:                                              ; preds = %133
  %146 = load ptr, ptr %4, align 8, !tbaa !48
  %147 = call i32 (ptr, i32, ptr, ...) @opj_event_msg(ptr noundef %146, i32 noundef 1, ptr noundef @.str.176)
  store i32 8, ptr %8, align 4
  br label %195

148:                                              ; preds = %133
  br label %149

149:                                              ; preds = %148, %111
  %150 = load i64, ptr %7, align 8, !tbaa !85
  %151 = load ptr, ptr %11, align 8, !tbaa !427
  %152 = getelementptr inbounds nuw %struct.opj_tile_index, ptr %151, i32 0, i32 4
  %153 = load ptr, ptr %152, align 8, !tbaa !238
  %154 = load ptr, ptr %11, align 8, !tbaa !427
  %155 = getelementptr inbounds nuw %struct.opj_tile_index, ptr %154, i32 0, i32 1
  %156 = load i32, ptr %155, align 4, !tbaa !253
  %157 = zext i32 %156 to i64
  %158 = getelementptr inbounds nuw %struct.opj_tp_index, ptr %153, i64 %157
  %159 = getelementptr inbounds nuw %struct.opj_tp_index, ptr %158, i32 0, i32 0
  store i64 %150, ptr %159, align 8, !tbaa !255
  %160 = load i64, ptr %7, align 8, !tbaa !85
  %161 = load ptr, ptr %5, align 8, !tbaa !414
  %162 = getelementptr inbounds nuw %struct.opj_j2k_tlm_info, ptr %161, i32 0, i32 1
  %163 = load ptr, ptr %162, align 8, !tbaa !420
  %164 = load i32, ptr %6, align 4, !tbaa !3
  %165 = zext i32 %164 to i64
  %166 = getelementptr inbounds nuw %struct.opj_j2k_tlm_tile_part_info, ptr %163, i64 %165
  %167 = getelementptr inbounds nuw %struct.opj_j2k_tlm_tile_part_info, ptr %166, i32 0, i32 1
  %168 = load i32, ptr %167, align 4, !tbaa !428
  %169 = zext i32 %168 to i64
  %170 = add nsw i64 %160, %169
  %171 = load ptr, ptr %11, align 8, !tbaa !427
  %172 = getelementptr inbounds nuw %struct.opj_tile_index, ptr %171, i32 0, i32 4
  %173 = load ptr, ptr %172, align 8, !tbaa !238
  %174 = load ptr, ptr %11, align 8, !tbaa !427
  %175 = getelementptr inbounds nuw %struct.opj_tile_index, ptr %174, i32 0, i32 1
  %176 = load i32, ptr %175, align 4, !tbaa !253
  %177 = zext i32 %176 to i64
  %178 = getelementptr inbounds nuw %struct.opj_tp_index, ptr %173, i64 %177
  %179 = getelementptr inbounds nuw %struct.opj_tp_index, ptr %178, i32 0, i32 2
  store i64 %170, ptr %179, align 8, !tbaa !288
  %180 = load ptr, ptr %11, align 8, !tbaa !427
  %181 = getelementptr inbounds nuw %struct.opj_tile_index, ptr %180, i32 0, i32 1
  %182 = load i32, ptr %181, align 4, !tbaa !253
  %183 = add i32 %182, 1
  store i32 %183, ptr %181, align 4, !tbaa !253
  %184 = load ptr, ptr %5, align 8, !tbaa !414
  %185 = getelementptr inbounds nuw %struct.opj_j2k_tlm_info, ptr %184, i32 0, i32 1
  %186 = load ptr, ptr %185, align 8, !tbaa !420
  %187 = load i32, ptr %6, align 4, !tbaa !3
  %188 = zext i32 %187 to i64
  %189 = getelementptr inbounds nuw %struct.opj_j2k_tlm_tile_part_info, ptr %186, i64 %188
  %190 = getelementptr inbounds nuw %struct.opj_j2k_tlm_tile_part_info, ptr %189, i32 0, i32 1
  %191 = load i32, ptr %190, align 4, !tbaa !428
  %192 = zext i32 %191 to i64
  %193 = load i64, ptr %7, align 8, !tbaa !85
  %194 = add nsw i64 %193, %192
  store i64 %194, ptr %7, align 8, !tbaa !85
  store i32 0, ptr %8, align 4
  br label %195

195:                                              ; preds = %145, %149
  call void @llvm.lifetime.end.p0(i64 8, ptr %11) #10
  call void @llvm.lifetime.end.p0(i64 4, ptr %10) #10
  %196 = load i32, ptr %8, align 4
  switch i32 %196, label %253 [
    i32 0, label %197
    i32 8, label %202
  ]

197:                                              ; preds = %195
  br label %198

198:                                              ; preds = %197
  %199 = load i32, ptr %6, align 4, !tbaa !3
  %200 = add i32 %199, 1
  store i32 %200, ptr %6, align 4, !tbaa !3
  br label %105, !llvm.loop !429

201:                                              ; preds = %105
  store i32 1, ptr %8, align 4
  br label %253

202:                                              ; preds = %195, %91
  %203 = load ptr, ptr %5, align 8, !tbaa !414
  %204 = getelementptr inbounds nuw %struct.opj_j2k_tlm_info, ptr %203, i32 0, i32 2
  store i32 1, ptr %204, align 8, !tbaa !419
  store i32 0, ptr %6, align 4, !tbaa !3
  br label %205

205:                                              ; preds = %249, %202
  %206 = load i32, ptr %6, align 4, !tbaa !3
  %207 = load ptr, ptr %5, align 8, !tbaa !414
  %208 = getelementptr inbounds nuw %struct.opj_j2k_tlm_info, ptr %207, i32 0, i32 0
  %209 = load i32, ptr %208, align 8, !tbaa !416
  %210 = icmp ult i32 %206, %209
  br i1 %210, label %211, label %252

211:                                              ; preds = %205
  call void @llvm.lifetime.start.p0(i64 4, ptr %12) #10
  %212 = load ptr, ptr %5, align 8, !tbaa !414
  %213 = getelementptr inbounds nuw %struct.opj_j2k_tlm_info, ptr %212, i32 0, i32 1
  %214 = load ptr, ptr %213, align 8, !tbaa !420
  %215 = load i32, ptr %6, align 4, !tbaa !3
  %216 = zext i32 %215 to i64
  %217 = getelementptr inbounds nuw %struct.opj_j2k_tlm_tile_part_info, ptr %214, i64 %216
  %218 = getelementptr inbounds nuw %struct.opj_j2k_tlm_tile_part_info, ptr %217, i32 0, i32 0
  %219 = load i16, ptr %218, align 4, !tbaa !421
  %220 = zext i16 %219 to i32
  store i32 %220, ptr %12, align 4, !tbaa !3
  %221 = load ptr, ptr %3, align 8, !tbaa !14
  %222 = getelementptr inbounds nuw %struct.opj_j2k, ptr %221, i32 0, i32 7
  %223 = load ptr, ptr %222, align 8, !tbaa !41
  %224 = getelementptr inbounds nuw %struct.opj_codestream_index, ptr %223, i32 0, i32 7
  %225 = load ptr, ptr %224, align 8, !tbaa !232
  %226 = load i32, ptr %12, align 4, !tbaa !3
  %227 = zext i32 %226 to i64
  %228 = getelementptr inbounds nuw %struct.opj_tile_index, ptr %225, i64 %227
  %229 = getelementptr inbounds nuw %struct.opj_tile_index, ptr %228, i32 0, i32 2
  store i32 0, ptr %229, align 8, !tbaa !424
  %230 = load ptr, ptr %3, align 8, !tbaa !14
  %231 = getelementptr inbounds nuw %struct.opj_j2k, ptr %230, i32 0, i32 7
  %232 = load ptr, ptr %231, align 8, !tbaa !41
  %233 = getelementptr inbounds nuw %struct.opj_codestream_index, ptr %232, i32 0, i32 7
  %234 = load ptr, ptr %233, align 8, !tbaa !232
  %235 = load i32, ptr %12, align 4, !tbaa !3
  %236 = zext i32 %235 to i64
  %237 = getelementptr inbounds nuw %struct.opj_tile_index, ptr %234, i64 %236
  %238 = getelementptr inbounds nuw %struct.opj_tile_index, ptr %237, i32 0, i32 4
  %239 = load ptr, ptr %238, align 8, !tbaa !238
  call void @opj_free(ptr noundef %239)
  %240 = load ptr, ptr %3, align 8, !tbaa !14
  %241 = getelementptr inbounds nuw %struct.opj_j2k, ptr %240, i32 0, i32 7
  %242 = load ptr, ptr %241, align 8, !tbaa !41
  %243 = getelementptr inbounds nuw %struct.opj_codestream_index, ptr %242, i32 0, i32 7
  %244 = load ptr, ptr %243, align 8, !tbaa !232
  %245 = load i32, ptr %12, align 4, !tbaa !3
  %246 = zext i32 %245 to i64
  %247 = getelementptr inbounds nuw %struct.opj_tile_index, ptr %244, i64 %246
  %248 = getelementptr inbounds nuw %struct.opj_tile_index, ptr %247, i32 0, i32 4
  store ptr null, ptr %248, align 8, !tbaa !238
  call void @llvm.lifetime.end.p0(i64 4, ptr %12) #10
  br label %249

249:                                              ; preds = %211
  %250 = load i32, ptr %6, align 4, !tbaa !3
  %251 = add i32 %250, 1
  store i32 %251, ptr %6, align 4, !tbaa !3
  br label %205, !llvm.loop !430

252:                                              ; preds = %205
  store i32 0, ptr %8, align 4
  br label %253

253:                                              ; preds = %252, %201, %195, %28, %20
  call void @llvm.lifetime.end.p0(i64 8, ptr %7) #10
  call void @llvm.lifetime.end.p0(i64 4, ptr %6) #10
  call void @llvm.lifetime.end.p0(i64 8, ptr %5) #10
  %254 = load i32, ptr %8, align 4
  switch i32 %254, label %256 [
    i32 0, label %255
    i32 1, label %255
  ]

255:                                              ; preds = %253, %253
  ret void

256:                                              ; preds = %253
  unreachable
}