; Function Attrs: nounwind uwtable
define internal fastcc void @opj_j2k_build_tp_index_from_tlm(ptr noundef captures(none) %0, ptr noundef %1) unnamed_addr #3 {
  %3 = getelementptr inbounds nuw i8, ptr %0, i64 88
  %4 = load i32, ptr %3, align 8, !tbaa !390
  %5 = icmp eq i32 %4, 0
  %6 = getelementptr inbounds nuw i8, ptr %0, i64 104
  br i1 %5, label %7, label %8

7:                                                ; preds = %2
  store i32 1, ptr %6, align 8, !tbaa !393
  br label %.loopexit

8:                                                ; preds = %2
  %9 = load i32, ptr %6, align 8, !tbaa !393
  %.not = icmp eq i32 %9, 0
  br i1 %.not, label %.preheader69, label %.loopexit

.preheader69:                                     ; preds = %8
  %10 = getelementptr inbounds nuw i8, ptr %0, i64 96
  %11 = load ptr, ptr %10, align 8, !tbaa !394
  %12 = getelementptr inbounds nuw i8, ptr %0, i64 328
  %13 = load ptr, ptr %12, align 8, !tbaa !46
  %14 = getelementptr inbounds nuw i8, ptr %13, i64 48
  %15 = load ptr, ptr %14, align 8, !tbaa !203
  %wide.trip.count = zext i32 %4 to i64
  br label %18

.preheader:                                       ; preds = %18
  %16 = getelementptr inbounds nuw i8, ptr %13, i64 44
  %17 = load i32, ptr %16, align 4, !tbaa !204
  %.not83 = icmp eq i32 %17, 0
  br i1 %.not83, label %.lr.ph79, label %.lr.ph

.lr.ph:                                           ; preds = %.preheader
  %wide.trip.count92 = zext i32 %17 to i64
  br label %27

18:                                               ; preds = %.preheader69, %18
  %indvars.iv = phi i64 [ 0, %.preheader69 ], [ %indvars.iv.next, %18 ]
  %19 = getelementptr inbounds nuw %struct.opj_j2k_tlm_tile_part_info, ptr %11, i64 %indvars.iv
  %20 = load i16, ptr %19, align 4, !tbaa !395
  %21 = zext i16 %20 to i32
  %22 = zext i16 %20 to i64
  %23 = getelementptr inbounds nuw %struct.opj_tile_index, ptr %15, i64 %22
  store i32 %21, ptr %23, align 8, !tbaa !397
  %24 = getelementptr inbounds nuw %struct.opj_tile_index, ptr %15, i64 %22, i32 2
  %25 = load i32, ptr %24, align 8, !tbaa !398
  %26 = add i32 %25, 1
  store i32 %26, ptr %24, align 8, !tbaa !398
  %indvars.iv.next = add nuw nsw i64 %indvars.iv, 1
  %exitcond.not = icmp eq i64 %indvars.iv.next, %wide.trip.count
  br i1 %exitcond.not, label %.preheader, label %18, !llvm.loop !399

27:                                               ; preds = %.lr.ph, %34
  %indvars.iv89 = phi i64 [ 0, %.lr.ph ], [ %indvars.iv.next90, %34 ]
  %28 = getelementptr inbounds nuw %struct.opj_tile_index, ptr %15, i64 %indvars.iv89, i32 2
  %29 = load i32, ptr %28, align 8, !tbaa !398
  %30 = icmp eq i32 %29, 0
  br i1 %30, label %31, label %34

31:                                               ; preds = %27
  %32 = trunc nuw i64 %indvars.iv89 to i32
  %33 = tail call i32 (ptr, i32, ptr, ...) @opj_event_msg(ptr noundef %1, i32 noundef 1, ptr noundef nonnull @.str.175, i32 noundef %32) #21
  br label %72

34:                                               ; preds = %27
  %indvars.iv.next90 = add nuw nsw i64 %indvars.iv89, 1
  %exitcond93.not = icmp eq i64 %indvars.iv.next90, %wide.trip.count92
  br i1 %exitcond93.not, label %.lr.ph79, label %27, !llvm.loop !400

.lr.ph79:                                         ; preds = %34, %.preheader
  %35 = getelementptr inbounds nuw i8, ptr %13, i64 8
  %36 = load i64, ptr %35, align 8, !tbaa !277
  br label %37

37:                                               ; preds = %.lr.ph79, %56
  %38 = phi i32 [ %4, %.lr.ph79 ], [ %57, %56 ]
  %39 = phi ptr [ %11, %.lr.ph79 ], [ %58, %56 ]
  %indvars.iv94 = phi i64 [ 0, %.lr.ph79 ], [ %indvars.iv.next95, %56 ]
  %.05876 = phi i64 [ %36, %.lr.ph79 ], [ %67, %56 ]
  %40 = getelementptr inbounds nuw %struct.opj_j2k_tlm_tile_part_info, ptr %39, i64 %indvars.iv94
  %41 = load i16, ptr %40, align 4, !tbaa !395
  %42 = load ptr, ptr %12, align 8, !tbaa !46
  %43 = getelementptr inbounds nuw i8, ptr %42, i64 48
  %44 = load ptr, ptr %43, align 8, !tbaa !203
  %45 = zext i16 %41 to i64
  %46 = getelementptr inbounds nuw %struct.opj_tile_index, ptr %44, i64 %45
  %47 = getelementptr inbounds nuw i8, ptr %46, i64 16
  %48 = load ptr, ptr %47, align 8, !tbaa !209
  %.not61 = icmp eq ptr %48, null
  br i1 %.not61, label %49, label %56

49:                                               ; preds = %37
  %50 = getelementptr inbounds nuw i8, ptr %46, i64 8
  %51 = load i32, ptr %50, align 8, !tbaa !398
  %52 = zext i32 %51 to i64
  %53 = tail call ptr @opj_calloc(i64 noundef %52, i64 noundef 24) #21
  store ptr %53, ptr %47, align 8, !tbaa !209
  %.not62 = icmp eq ptr %53, null
  br i1 %.not62, label %54, label %._crit_edge100

._crit_edge100:                                   ; preds = %49
  %.pre = load ptr, ptr %10, align 8, !tbaa !394
  %.pre101 = load i32, ptr %3, align 8, !tbaa !390
  br label %56

54:                                               ; preds = %49
  %55 = tail call i32 (ptr, i32, ptr, ...) @opj_event_msg(ptr noundef %1, i32 noundef 1, ptr noundef nonnull @.str.176) #21
  br label %72

56:                                               ; preds = %._crit_edge100, %37
  %57 = phi i32 [ %38, %37 ], [ %.pre101, %._crit_edge100 ]
  %58 = phi ptr [ %39, %37 ], [ %.pre, %._crit_edge100 ]
  %59 = phi ptr [ %48, %37 ], [ %53, %._crit_edge100 ]
  %60 = getelementptr inbounds nuw i8, ptr %46, i64 4
  %61 = load i32, ptr %60, align 4, !tbaa !228
  %62 = zext i32 %61 to i64
  %63 = getelementptr inbounds nuw %struct.opj_tp_index, ptr %59, i64 %62
  store i64 %.05876, ptr %63, align 8, !tbaa !229
  %64 = getelementptr inbounds nuw %struct.opj_j2k_tlm_tile_part_info, ptr %58, i64 %indvars.iv94, i32 1
  %65 = load i32, ptr %64, align 4, !tbaa !401
  %66 = zext i32 %65 to i64
  %67 = add nsw i64 %.05876, %66
  %68 = getelementptr inbounds nuw %struct.opj_tp_index, ptr %59, i64 %62, i32 2
  store i64 %67, ptr %68, align 8, !tbaa !235
  %69 = add i32 %61, 1
  store i32 %69, ptr %60, align 4, !tbaa !228
  %indvars.iv.next95 = add nuw nsw i64 %indvars.iv94, 1
  %70 = zext i32 %57 to i64
  %71 = icmp samesign ult i64 %indvars.iv.next95, %70
  br i1 %71, label %37, label %.loopexit, !llvm.loop !402

72:                                               ; preds = %54, %31
  store i32 1, ptr %6, align 8, !tbaa !393
  %73 = load i32, ptr %3, align 8, !tbaa !390
  %.not85 = icmp eq i32 %73, 0
  br i1 %.not85, label %.loopexit, label %.lr.ph82

.lr.ph82:                                         ; preds = %72
  %.pre102 = load ptr, ptr %12, align 8, !tbaa !46
  %.phi.trans.insert = getelementptr inbounds nuw i8, ptr %.pre102, i64 48
  %.pre103 = load ptr, ptr %.phi.trans.insert, align 8, !tbaa !203
  br label %74

74:                                               ; preds = %.lr.ph82, %74
  %75 = phi ptr [ %.pre103, %.lr.ph82 ], [ %85, %74 ]
  %indvars.iv97 = phi i64 [ 0, %.lr.ph82 ], [ %indvars.iv.next98, %74 ]
  %76 = load ptr, ptr %10, align 8, !tbaa !394
  %77 = getelementptr inbounds nuw %struct.opj_j2k_tlm_tile_part_info, ptr %76, i64 %indvars.iv97
  %78 = load i16, ptr %77, align 4, !tbaa !395
  %79 = zext i16 %78 to i64
  %80 = getelementptr inbounds nuw %struct.opj_tile_index, ptr %75, i64 %79, i32 2
  store i32 0, ptr %80, align 8, !tbaa !398
  %81 = getelementptr inbounds nuw %struct.opj_tile_index, ptr %75, i64 %79, i32 4
  %82 = load ptr, ptr %81, align 8, !tbaa !209
  tail call void @opj_free(ptr noundef %82) #21
  %83 = load ptr, ptr %12, align 8, !tbaa !46
  %84 = getelementptr inbounds nuw i8, ptr %83, i64 48
  %85 = load ptr, ptr %84, align 8, !tbaa !203
  %86 = getelementptr inbounds nuw %struct.opj_tile_index, ptr %85, i64 %79, i32 4
  store ptr null, ptr %86, align 8, !tbaa !209
  %indvars.iv.next98 = add nuw nsw i64 %indvars.iv97, 1
  %87 = load i32, ptr %3, align 8, !tbaa !390
  %88 = zext i32 %87 to i64
  %89 = icmp samesign ult i64 %indvars.iv.next98, %88
  br i1 %89, label %74, label %.loopexit, !llvm.loop !403

.loopexit:                                        ; preds = %56, %74, %72, %8, %7
  ret void
}